target datalayout = "e-m:e-p270:32:32-p271:32:32-p272:64:64-i64:64-i128:128-f80:128-n8:16:32:64-S128"
target triple = "x86_64-unknown-linux-gnu"

%struct.QEMUSnapshotInfo = type { [128 x i8], [256 x i8], i64, i32, i32, i64, i64 }
%struct.SnapshotInfo = type { ptr, ptr, i64, i64, i64, i64, i64, i8, i64 }
%struct.SnapshotInfoList = type { ptr, ptr }

@.str = private unnamed_addr constant [21 x i8] c"../qemu/block/qapi.c\00", align 1
@__func__.bdrv_query_snapshot_info_list = private unnamed_addr constant [30 x i8] c"bdrv_query_snapshot_info_list\00", align 1
@.str.2 = private unnamed_addr constant [28 x i8] c"Device '%s' is not inserted\00", align 1
@.str.3 = private unnamed_addr constant [48 x i8] c"Device '%s' does not support internal snapshots\00", align 1
@.str.4 = private unnamed_addr constant [36 x i8] c"Can't list snapshots of device '%s'\00", align 1

; Function Attrs: nounwind sspstrong uwtable
define dso_local i32 @bdrv_query_snapshot_info_list(ptr noundef %bs, ptr noundef %p_list, ptr noundef %errp) #0 {
entry:
  %retval = alloca i32, align 4
  %bs.addr = alloca ptr, align 8
  %p_list.addr = alloca ptr, align 8
  %errp.addr = alloca ptr, align 8
  %i = alloca i32, align 4
  %sn_count = alloca i32, align 4
  %sn_tab = alloca ptr, align 8
  %head = alloca ptr, align 8
  %tail = alloca ptr, align 8
  %info = alloca ptr, align 8
  %dev = alloca ptr, align 8
  store ptr %bs, ptr %bs.addr, align 8
  store ptr %p_list, ptr %p_list.addr, align 8
  store ptr %errp, ptr %errp.addr, align 8
  store ptr null, ptr %sn_tab, align 8
  store ptr null, ptr %head, align 8
  store ptr %head, ptr %tail, align 8
  %0 = load ptr, ptr %bs.addr, align 8
  %call = call i32 @bdrv_snapshot_list(ptr noundef %0, ptr noundef %sn_tab)
  store i32 %call, ptr %sn_count, align 4
  %1 = load i32, ptr %sn_count, align 4
  %cmp = icmp slt i32 %1, 0
  br i1 %cmp, label %if.then, label %if.end

if.then:                                          ; preds = %entry
  %2 = load ptr, ptr %bs.addr, align 8
  %call1 = call ptr @bdrv_get_device_name(ptr noundef %2)
  store ptr %call1, ptr %dev, align 8
  %3 = load i32, ptr %sn_count, align 4
  switch i32 %3, label %sw.default [
    i32 -123, label %sw.bb
    i32 -95, label %sw.bb2
  ]

sw.bb:                                            ; preds = %if.then
  %4 = load ptr, ptr %errp.addr, align 8
  %5 = load ptr, ptr %dev, align 8
  call void (ptr, ptr, i32, ptr, ptr, ...) @error_setg_internal(ptr noundef %4, ptr noundef @.str, i32 noundef 189, ptr noundef @__func__.bdrv_query_snapshot_info_list, ptr noundef @.str.2, ptr noundef %5)
  br label %sw.epilog

sw.bb2:                                           ; preds = %if.then
  %6 = load ptr, ptr %errp.addr, align 8
  %7 = load ptr, ptr %dev, align 8
  call void (ptr, ptr, i32, ptr, ptr, ...) @error_setg_internal(ptr noundef %6, ptr noundef @.str, i32 noundef 194, ptr noundef @__func__.bdrv_query_snapshot_info_list, ptr noundef @.str.3, ptr noundef %7)
  br label %sw.epilog

sw.default:                                       ; preds = %if.then
  %8 = load ptr, ptr %errp.addr, align 8
  %9 = load i32, ptr %sn_count, align 4
  %sub = sub i32 0, %9
  %10 = load ptr, ptr %dev, align 8
  call void (ptr, ptr, i32, ptr, i32, ptr, ...) @error_setg_errno_internal(ptr noundef %8, ptr noundef @.str, i32 noundef 198, ptr noundef @__func__.bdrv_query_snapshot_info_list, i32 noundef %sub, ptr noundef @.str.4, ptr noundef %10)
  br label %sw.epilog

sw.epilog:                                        ; preds = %sw.default, %sw.bb2, %sw.bb
  %11 = load i32, ptr %sn_count, align 4
  store i32 %11, ptr %retval, align 4
  br label %return

if.end:                                           ; preds = %entry
  store i32 0, ptr %i, align 4
  br label %for.cond

for.cond:                                         ; preds = %for.inc, %if.end
  %12 = load i32, ptr %i, align 4
  %13 = load i32, ptr %sn_count, align 4
  %cmp3 = icmp slt i32 %12, %13
  br i1 %cmp3, label %for.body, label %for.end

for.body:                                         ; preds = %for.cond
  %call4 = call noalias ptr @g_malloc0_n(i64 noundef 1, i64 noundef 72) #10
  store ptr %call4, ptr %info, align 8
  %14 = load ptr, ptr %sn_tab, align 8
  %15 = load i32, ptr %i, align 4
  %idxprom = sext i32 %15 to i64
  %arrayidx = getelementptr %struct.QEMUSnapshotInfo, ptr %14, i64 %idxprom
  %id_str = getelementptr inbounds %struct.QEMUSnapshotInfo, ptr %arrayidx, i32 0, i32 0
  %arraydecay = getelementptr inbounds [128 x i8], ptr %id_str, i64 0, i64 0
  %call5 = call noalias ptr @g_strdup(ptr noundef %arraydecay)
  %16 = load ptr, ptr %info, align 8
  %id = getelementptr inbounds %struct.SnapshotInfo, ptr %16, i32 0, i32 0
  store ptr %call5, ptr %id, align 8
  %17 = load ptr, ptr %sn_tab, align 8
  %18 = load i32, ptr %i, align 4
  %idxprom6 = sext i32 %18 to i64
  %arrayidx7 = getelementptr %struct.QEMUSnapshotInfo, ptr %17, i64 %idxprom6
  %name = getelementptr inbounds %struct.QEMUSnapshotInfo, ptr %arrayidx7, i32 0, i32 1
  %arraydecay8 = getelementptr inbounds [256 x i8], ptr %name, i64 0, i64 0
  %call9 = call noalias ptr @g_strdup(ptr noundef %arraydecay8)
  %19 = load ptr, ptr %info, align 8
  %name10 = getelementptr inbounds %struct.SnapshotInfo, ptr %19, i32 0, i32 1
  store ptr %call9, ptr %name10, align 8
  %20 = load ptr, ptr %sn_tab, align 8
  %21 = load i32, ptr %i, align 4
  %idxprom11 = sext i32 %21 to i64
  %arrayidx12 = getelementptr %struct.QEMUSnapshotInfo, ptr %20, i64 %idxprom11
  %vm_state_size = getelementptr inbounds %struct.QEMUSnapshotInfo, ptr %arrayidx12, i32 0, i32 2
  %22 = load i64, ptr %vm_state_size, align 8
  %23 = load ptr, ptr %info, align 8
  %vm_state_size13 = getelementptr inbounds %struct.SnapshotInfo, ptr %23, i32 0, i32 2
  store i64 %22, ptr %vm_state_size13, align 8
  %24 = load ptr, ptr %sn_tab, align 8
  %25 = load i32, ptr %i, align 4
  %idxprom14 = sext i32 %25 to i64
  %arrayidx15 = getelementptr %struct.QEMUSnapshotInfo, ptr %24, i64 %idxprom14
  %date_sec = getelementptr inbounds %struct.QEMUSnapshotInfo, ptr %arrayidx15, i32 0, i32 3
  %26 = load i32, ptr %date_sec, align 8
  %conv = zext i32 %26 to i64
  %27 = load ptr, ptr %info, align 8
  %date_sec16 = getelementptr inbounds %struct.SnapshotInfo, ptr %27, i32 0, i32 3
  store i64 %conv, ptr %date_sec16, align 8
  %28 = load ptr, ptr %sn_tab, align 8
  %29 = load i32, ptr %i, align 4
  %idxprom17 = sext i32 %29 to i64
  %arrayidx18 = getelementptr %struct.QEMUSnapshotInfo, ptr %28, i64 %idxprom17
  %date_nsec = getelementptr inbounds %struct.QEMUSnapshotInfo, ptr %arrayidx18, i32 0, i32 4
  %30 = load i32, ptr %date_nsec, align 4
  %conv19 = zext i32 %30 to i64
  %31 = load ptr, ptr %info, align 8
  %date_nsec20 = getelementptr inbounds %struct.SnapshotInfo, ptr %31, i32 0, i32 4
  store i64 %conv19, ptr %date_nsec20, align 8
  %32 = load ptr, ptr %sn_tab, align 8
  %33 = load i32, ptr %i, align 4
  %idxprom21 = sext i32 %33 to i64
  %arrayidx22 = getelementptr %struct.QEMUSnapshotInfo, ptr %32, i64 %idxprom21
  %vm_clock_nsec = getelementptr inbounds %struct.QEMUSnapshotInfo, ptr %arrayidx22, i32 0, i32 5
  %34 = load i64, ptr %vm_clock_nsec, align 8
  %div = udiv i64 %34, 1000000000
  %35 = load ptr, ptr %info, align 8
  %vm_clock_sec = getelementptr inbounds %struct.SnapshotInfo, ptr %35, i32 0, i32 5
  store i64 %div, ptr %vm_clock_sec, align 8
  %36 = load ptr, ptr %sn_tab, align 8
  %37 = load i32, ptr %i, align 4
  %idxprom23 = sext i32 %37 to i64
  %arrayidx24 = getelementptr %struct.QEMUSnapshotInfo, ptr %36, i64 %idxprom23
  %vm_clock_nsec25 = getelementptr inbounds %struct.QEMUSnapshotInfo, ptr %arrayidx24, i32 0, i32 5
  %38 = load i64, ptr %vm_clock_nsec25, align 8
  %rem = urem i64 %38, 1000000000
  %39 = load ptr, ptr %info, align 8
  %vm_clock_nsec26 = getelementptr inbounds %struct.SnapshotInfo, ptr %39, i32 0, i32 6
  store i64 %rem, ptr %vm_clock_nsec26, align 8
  %40 = load ptr, ptr %sn_tab, align 8
  %41 = load i32, ptr %i, align 4
  %idxprom27 = sext i32 %41 to i64
  %arrayidx28 = getelementptr %struct.QEMUSnapshotInfo, ptr %40, i64 %idxprom27
  %icount = getelementptr inbounds %struct.QEMUSnapshotInfo, ptr %arrayidx28, i32 0, i32 6
  %42 = load i64, ptr %icount, align 8
  %43 = load ptr, ptr %info, align 8
  %icount29 = getelementptr inbounds %struct.SnapshotInfo, ptr %43, i32 0, i32 8
  store i64 %42, ptr %icount29, align 8
  %44 = load ptr, ptr %sn_tab, align 8
  %45 = load i32, ptr %i, align 4
  %idxprom30 = sext i32 %45 to i64
  %arrayidx31 = getelementptr %struct.QEMUSnapshotInfo, ptr %44, i64 %idxprom30
  %icount32 = getelementptr inbounds %struct.QEMUSnapshotInfo, ptr %arrayidx31, i32 0, i32 6
  %46 = load i64, ptr %icount32, align 8
  %cmp33 = icmp ne i64 %46, -1
  %47 = load ptr, ptr %info, align 8
  %has_icount = getelementptr inbounds %struct.SnapshotInfo, ptr %47, i32 0, i32 7
  %frombool = zext i1 %cmp33 to i8
  store i8 %frombool, ptr %has_icount, align 8
  br label %do.body

do.body:                                          ; preds = %for.body
  %call35 = call noalias ptr @g_malloc0(i64 noundef 16) #9
  %48 = load ptr, ptr %tail, align 8
  store ptr %call35, ptr %48, align 8
  %49 = load ptr, ptr %info, align 8
  %50 = load ptr, ptr %tail, align 8
  %51 = load ptr, ptr %50, align 8
  %value = getelementptr inbounds %struct.SnapshotInfoList, ptr %51, i32 0, i32 1
  store ptr %49, ptr %value, align 8
  %52 = load ptr, ptr %tail, align 8
  %53 = load ptr, ptr %52, align 8
  %next = getelementptr inbounds %struct.SnapshotInfoList, ptr %53, i32 0, i32 0
  store ptr %next, ptr %tail, align 8
  br label %do.end

do.end:                                           ; preds = %do.body
  br label %for.inc

for.inc:                                          ; preds = %do.end
  %54 = load i32, ptr %i, align 4
  %inc = add i32 %54, 1
  store i32 %inc, ptr %i, align 4
  br label %for.cond, !llvm.loop !7

for.end:                                          ; preds = %for.cond
  %55 = load ptr, ptr %sn_tab, align 8
  call void @g_free(ptr noundef %55)
  %56 = load ptr, ptr %head, align 8
  %57 = load ptr, ptr %p_list.addr, align 8
  store ptr %56, ptr %57, align 8
  store i32 0, ptr %retval, align 4
  br label %return

return:                                           ; preds = %for.end, %sw.epilog
  %58 = load i32, ptr %retval, align 4
  ret i32 %58
}