; Function Attrs: nounwind sspstrong uwtable
define dso_local range(i32 -2147483648, 1) i32 @bdrv_query_snapshot_info_list(ptr noundef %bs, ptr noundef writeonly captures(none) %p_list, ptr noundef %errp) local_unnamed_addr #0 {
entry:
  %sn_tab = alloca ptr, align 8
  %head = alloca ptr, align 8
  store ptr null, ptr %sn_tab, align 8
  store ptr null, ptr %head, align 8
  %call = call i32 @bdrv_snapshot_list(ptr noundef %bs, ptr noundef nonnull %sn_tab) #10
  %cmp = icmp slt i32 %call, 0
  br i1 %cmp, label %if.then, label %for.cond.preheader

for.cond.preheader:                               ; preds = %entry
  %cmp331.not = icmp eq i32 %call, 0
  br i1 %cmp331.not, label %for.end, label %for.body.preheader

for.body.preheader:                               ; preds = %for.cond.preheader
  %wide.trip.count = zext nneg i32 %call to i64
  br label %for.body

if.then:                                          ; preds = %entry
  %call1 = call ptr @bdrv_get_device_name(ptr noundef %bs) #10
  switch i32 %call, label %sw.default [
    i32 -123, label %sw.bb
    i32 -95, label %sw.bb2
  ]

sw.bb:                                            ; preds = %if.then
  call void (ptr, ptr, i32, ptr, ptr, ...) @error_setg_internal(ptr noundef %errp, ptr noundef nonnull @.str, i32 noundef 189, ptr noundef nonnull @__func__.bdrv_query_snapshot_info_list, ptr noundef nonnull @.str.2, ptr noundef %call1) #10
  br label %return

sw.bb2:                                           ; preds = %if.then
  call void (ptr, ptr, i32, ptr, ptr, ...) @error_setg_internal(ptr noundef %errp, ptr noundef nonnull @.str, i32 noundef 194, ptr noundef nonnull @__func__.bdrv_query_snapshot_info_list, ptr noundef nonnull @.str.3, ptr noundef %call1) #10
  br label %return

sw.default:                                       ; preds = %if.then
  %sub = sub i32 0, %call
  call void (ptr, ptr, i32, ptr, i32, ptr, ...) @error_setg_errno_internal(ptr noundef %errp, ptr noundef nonnull @.str, i32 noundef 198, ptr noundef nonnull @__func__.bdrv_query_snapshot_info_list, i32 noundef %sub, ptr noundef nonnull @.str.4, ptr noundef %call1) #10
  br label %return

for.body:                                         ; preds = %for.body.preheader, %for.body
  %indvars.iv = phi i64 [ 0, %for.body.preheader ], [ %indvars.iv.next, %for.body ]
  %tail.032 = phi ptr [ %head, %for.body.preheader ], [ %9, %for.body ]
  %call4 = call noalias dereferenceable_or_null(72) ptr @g_malloc0_n(i64 noundef 1, i64 noundef 72) #12
  %0 = load ptr, ptr %sn_tab, align 8
  %arrayidx = getelementptr %struct.QEMUSnapshotInfo, ptr %0, i64 %indvars.iv
  %call5 = call noalias ptr @g_strdup(ptr noundef %arrayidx) #10
  store ptr %call5, ptr %call4, align 8
  %1 = load ptr, ptr %sn_tab, align 8
  %name = getelementptr %struct.QEMUSnapshotInfo, ptr %1, i64 %indvars.iv, i32 1
  %call9 = call noalias ptr @g_strdup(ptr noundef %name) #10
  %name10 = getelementptr inbounds nuw i8, ptr %call4, i64 8
  store ptr %call9, ptr %name10, align 8
  %2 = load ptr, ptr %sn_tab, align 8
  %vm_state_size = getelementptr %struct.QEMUSnapshotInfo, ptr %2, i64 %indvars.iv, i32 2
  %3 = load i64, ptr %vm_state_size, align 8
  %vm_state_size13 = getelementptr inbounds nuw i8, ptr %call4, i64 16
  store i64 %3, ptr %vm_state_size13, align 8
  %date_sec = getelementptr %struct.QEMUSnapshotInfo, ptr %2, i64 %indvars.iv, i32 3
  %4 = load i32, ptr %date_sec, align 8
  %conv = zext i32 %4 to i64
  %date_sec16 = getelementptr inbounds nuw i8, ptr %call4, i64 24
  store i64 %conv, ptr %date_sec16, align 8
  %date_nsec = getelementptr %struct.QEMUSnapshotInfo, ptr %2, i64 %indvars.iv, i32 4
  %5 = load i32, ptr %date_nsec, align 4
  %conv19 = zext i32 %5 to i64
  %date_nsec20 = getelementptr inbounds nuw i8, ptr %call4, i64 32
  store i64 %conv19, ptr %date_nsec20, align 8
  %vm_clock_nsec = getelementptr %struct.QEMUSnapshotInfo, ptr %2, i64 %indvars.iv, i32 5
  %6 = load i64, ptr %vm_clock_nsec, align 8
  %div = udiv i64 %6, 1000000000
  %vm_clock_sec = getelementptr inbounds nuw i8, ptr %call4, i64 40
  store i64 %div, ptr %vm_clock_sec, align 8
  %7 = load i64, ptr %vm_clock_nsec, align 8
  %rem = urem i64 %7, 1000000000
  %vm_clock_nsec26 = getelementptr inbounds nuw i8, ptr %call4, i64 48
  store i64 %rem, ptr %vm_clock_nsec26, align 8
  %icount = getelementptr %struct.QEMUSnapshotInfo, ptr %2, i64 %indvars.iv, i32 6
  %8 = load i64, ptr %icount, align 8
  %icount29 = getelementptr inbounds nuw i8, ptr %call4, i64 64
  store i64 %8, ptr %icount29, align 8
  %cmp33 = icmp ne i64 %8, -1
  %has_icount = getelementptr inbounds nuw i8, ptr %call4, i64 56
  %frombool = zext i1 %cmp33 to i8
  store i8 %frombool, ptr %has_icount, align 8
  %call35 = call noalias dereferenceable_or_null(16) ptr @g_malloc0(i64 noundef 16) #11
  store ptr %call35, ptr %tail.032, align 8
  %value = getelementptr inbounds nuw i8, ptr %call35, i64 8
  store ptr %call4, ptr %value, align 8
  %9 = load ptr, ptr %tail.032, align 8
  %indvars.iv.next = add nuw nsw i64 %indvars.iv, 1
  %exitcond.not = icmp eq i64 %indvars.iv.next, %wide.trip.count
  br i1 %exitcond.not, label %for.end.loopexit, label %for.body, !llvm.loop !7

for.end.loopexit:                                 ; preds = %for.body
  %head.0.head.0.head.0.head.0..pre = load ptr, ptr %head, align 8
  br label %for.end

for.end:                                          ; preds = %for.end.loopexit, %for.cond.preheader
  %head.0.head.0.head.0. = phi ptr [ %head.0.head.0.head.0.head.0..pre, %for.end.loopexit ], [ null, %for.cond.preheader ]
  %10 = load ptr, ptr %sn_tab, align 8
  call void @g_free(ptr noundef %10) #10
  store ptr %head.0.head.0.head.0., ptr %p_list, align 8
  br label %return

return:                                           ; preds = %sw.bb, %sw.bb2, %sw.default, %for.end
  %retval.0 = phi i32 [ 0, %for.end ], [ %call, %sw.default ], [ -95, %sw.bb2 ], [ -123, %sw.bb ]
  ret i32 %retval.0
}